target datalayout = "e-m:e-p270:32:32-p271:32:32-p272:64:64-i64:64-i128:128-f80:128-n8:16:32:64-S128"
target triple = "x86_64-unknown-linux-gnu"

%"class.icu_75::TimeZoneRule" = type { %"class.icu_75::UObject", %"class.icu_75::UnicodeString", i32, i32 }
%"class.icu_75::UObject" = type { ptr }
%"class.icu_75::UnicodeString" = type { %"class.icu_75::Replaceable", %"union.icu_75::UnicodeString::StackBufferOrFields" }
%"class.icu_75::Replaceable" = type { %"class.icu_75::UObject" }
%"union.icu_75::UnicodeString::StackBufferOrFields" = type { %struct.anon.0, [32 x i8] }
%struct.anon.0 = type { i16, i32, i32, ptr }

@_ZTVN6icu_757UObjectE = external unnamed_addr constant { [5 x ptr] }, align 8

; Function Attrs: mustprogress nounwind uwtable
define linkonce_odr void @_ZN6icu_757UObjectC2ERKS0_(ptr noundef nonnull align 8 dereferenceable(8) %this, ptr noundef nonnull align 8 dereferenceable(8) %0) unnamed_addr #2 comdat align 2 {
entry:
  %this.addr = alloca ptr, align 8
  %.addr = alloca ptr, align 8
  store ptr %this, ptr %this.addr, align 8
  store ptr %0, ptr %.addr, align 8
  %this1 = load ptr, ptr %this.addr, align 8
  store ptr getelementptr inbounds ({ [5 x ptr] }, ptr @_ZTVN6icu_757UObjectE, i32 0, i32 0, i32 2), ptr %this1, align 8
  ret void
}

; Function Attrs: mustprogress uwtable
define void @_ZN6icu_7512TimeZoneRuleC2ERKS0_(ptr noundef nonnull align 8 dereferenceable(80) %this, ptr noundef nonnull align 8 dereferenceable(80) %source) unnamed_addr #0 align 2 personality ptr @__gxx_personality_v0 {
entry:
  %this.addr = alloca ptr, align 8
  %source.addr = alloca ptr, align 8
  %exn.slot = alloca ptr, align 8
  %ehselector.slot = alloca i32, align 4
  store ptr %this, ptr %this.addr, align 8
  store ptr %source, ptr %source.addr, align 8
  %this1 = load ptr, ptr %this.addr, align 8
  %0 = load ptr, ptr %source.addr, align 8
  call void @_ZN6icu_757UObjectC2ERKS0_(ptr noundef nonnull align 8 dereferenceable(8) %this1, ptr noundef nonnull align 8 dereferenceable(8) %0) #10
  store ptr getelementptr inbounds ({ [13 x ptr] }, ptr @_ZTVN6icu_7512TimeZoneRuleE, i32 0, i32 0, i32 2), ptr %this1, align 8
  %fName = getelementptr inbounds %"class.icu_75::TimeZoneRule", ptr %this1, i32 0, i32 1
  %1 = load ptr, ptr %source.addr, align 8
  %fName2 = getelementptr inbounds %"class.icu_75::TimeZoneRule", ptr %1, i32 0, i32 1
  invoke void @_ZN6icu_7513UnicodeStringC1ERKS0_(ptr noundef nonnull align 8 dereferenceable(64) %fName, ptr noundef nonnull align 8 dereferenceable(64) %fName2)
          to label %invoke.cont unwind label %lpad

invoke.cont:                                      ; preds = %entry
  %fRawOffset = getelementptr inbounds %"class.icu_75::TimeZoneRule", ptr %this1, i32 0, i32 2
  %2 = load ptr, ptr %source.addr, align 8
  %fRawOffset3 = getelementptr inbounds %"class.icu_75::TimeZoneRule", ptr %2, i32 0, i32 2
  %3 = load i32, ptr %fRawOffset3, align 8
  store i32 %3, ptr %fRawOffset, align 8
  %fDSTSavings = getelementptr inbounds %"class.icu_75::TimeZoneRule", ptr %this1, i32 0, i32 3
  %4 = load ptr, ptr %source.addr, align 8
  %fDSTSavings4 = getelementptr inbounds %"class.icu_75::TimeZoneRule", ptr %4, i32 0, i32 3
  %5 = load i32, ptr %fDSTSavings4, align 4
  store i32 %5, ptr %fDSTSavings, align 4
  ret void

lpad:                                             ; preds = %entry
  %6 = landingpad { ptr, i32 }
          cleanup
  %7 = extractvalue { ptr, i32 } %6, 0
  store ptr %7, ptr %exn.slot, align 8
  %8 = extractvalue { ptr, i32 } %6, 1
  store i32 %8, ptr %ehselector.slot, align 4
  call void @_ZN6icu_757UObjectD2Ev(ptr noundef nonnull align 8 dereferenceable(8) %this1) #10
  br label %eh.resume

eh.resume:                                        ; preds = %lpad
  %exn = load ptr, ptr %exn.slot, align 8
  %sel = load i32, ptr %ehselector.slot, align 4
  %lpad.val = insertvalue { ptr, i32 } poison, ptr %exn, 0
  %lpad.val5 = insertvalue { ptr, i32 } %lpad.val, i32 %sel, 1
  resume { ptr, i32 } %lpad.val5
}