; Function Attrs: mustprogress uwtable
define void @_ZN6icu_7512TimeZoneRuleC2ERKS0_(ptr noundef nonnull align 8 dereferenceable(80) %this, ptr noundef nonnull align 8 dereferenceable(80) %source) unnamed_addr #0 align 2 personality ptr @__gxx_personality_v0 {
entry:
  store ptr getelementptr inbounds ({ [13 x ptr] }, ptr @_ZTVN6icu_7512TimeZoneRuleE, i64 0, i32 0, i64 2), ptr %this, align 8
  %fName = getelementptr inbounds i8, ptr %this, i64 8
  %fName2 = getelementptr inbounds i8, ptr %source, i64 8
  invoke void @_ZN6icu_7513UnicodeStringC1ERKS0_(ptr noundef nonnull align 8 dereferenceable(64) %fName, ptr noundef nonnull align 8 dereferenceable(64) %fName2)
          to label %invoke.cont unwind label %lpad

invoke.cont:                                      ; preds = %entry
  %fRawOffset = getelementptr inbounds i8, ptr %this, i64 72
  %fRawOffset3 = getelementptr inbounds i8, ptr %source, i64 72
  %0 = load i32, ptr %fRawOffset3, align 8
  store i32 %0, ptr %fRawOffset, align 8
  %fDSTSavings = getelementptr inbounds i8, ptr %this, i64 76
  %fDSTSavings4 = getelementptr inbounds i8, ptr %source, i64 76
  %1 = load i32, ptr %fDSTSavings4, align 4
  store i32 %1, ptr %fDSTSavings, align 4
  ret void

lpad:                                             ; preds = %entry
  %2 = landingpad { ptr, i32 }
          cleanup
  tail call void @_ZN6icu_757UObjectD2Ev(ptr noundef nonnull align 8 dereferenceable(8) %this) #16
  resume { ptr, i32 } %2
}